target datalayout = "e-m:e-p270:32:32-p271:32:32-p272:64:64-i64:64-i128:128-f80:128-n8:16:32:64-S128"
target triple = "x86_64-pc-linux-gnu"

@.str.90 = private unnamed_addr constant [12 x i8] c"arp.hw.type\00", align 1
@proto_register_arp.ett = internal global [4 x ptr] [ptr @ett_arp, ptr @ett_atmarp_nsap, ptr @ett_atmarp_tl, ptr @ett_arp_duplicate_address], align 16
@.str.190 = private unnamed_addr constant [28 x i8] c"Address Resolution Protocol\00", align 1
@.str.191 = private unnamed_addr constant [9 x i8] c"ARP/RARP\00", align 1
@.str.192 = private unnamed_addr constant [4 x i8] c"arp\00", align 1
@proto_arp = internal global i32 0, align 4
@.str.193 = private unnamed_addr constant [32 x i8] c"ATM Address Resolution Protocol\00", align 1
@.str.194 = private unnamed_addr constant [7 x i8] c"ATMARP\00", align 1
@.str.195 = private unnamed_addr constant [7 x i8] c"atmarp\00", align 1
@proto_atmarp = internal global i32 0, align 4
@arp_handle = internal global ptr null, align 8
@.str.196 = private unnamed_addr constant [8 x i8] c"atm_arp\00", align 1
@.str.197 = private unnamed_addr constant [9 x i8] c"ax25_arp\00", align 1
@.str.198 = private unnamed_addr constant [18 x i8] c"ARP Hardware Type\00", align 1
@arp_hw_table = internal global ptr null, align 8
@.str.199 = private unnamed_addr constant [22 x i8] c"detect_request_storms\00", align 1
@.str.200 = private unnamed_addr constant [26 x i8] c"Detect ARP request storms\00", align 1
@.str.201 = private unnamed_addr constant [49 x i8] c"Attempt to detect excessive rate of ARP requests\00", align 1
@global_arp_detect_request_storm = internal global i8 0, align 1
@.str.202 = private unnamed_addr constant [31 x i8] c"detect_storm_number_of_packets\00", align 1
@.str.203 = private unnamed_addr constant [43 x i8] c"Number of requests to detect during period\00", align 1
@.str.204 = private unnamed_addr constant [60 x i8] c"Number of requests needed within period to indicate a storm\00", align 1
@global_arp_detect_request_storm_packets = internal global i32 30, align 4
@.str.205 = private unnamed_addr constant [20 x i8] c"detect_storm_period\00", align 1
@.str.206 = private unnamed_addr constant [25 x i8] c"Detection period (in ms)\00", align 1
@.str.207 = private unnamed_addr constant [67 x i8] c"Period in milliseconds during which a packet storm may be detected\00", align 1
@global_arp_detect_request_storm_period = internal global i32 100, align 4
@.str.208 = private unnamed_addr constant [21 x i8] c"detect_duplicate_ips\00", align 1
@.str.209 = private unnamed_addr constant [42 x i8] c"Detect duplicate IP address configuration\00", align 1
@.str.210 = private unnamed_addr constant [48 x i8] c"Attempt to detect duplicate use of IP addresses\00", align 1
@global_arp_detect_duplicate_ip_addresses = internal global i8 1, align 1
@.str.211 = private unnamed_addr constant [33 x i8] c"register_network_address_binding\00", align 1
@.str.212 = private unnamed_addr constant [34 x i8] c"Register network address mappings\00", align 1
@.str.213 = private unnamed_addr constant [76 x i8] c"Try to resolve physical addresses to host names from ARP requests/responses\00", align 1
@global_arp_register_network_address_binding = internal global i8 1, align 1
@address_hash_table = internal global ptr null, align 8
@duplicate_result_hash_table = internal global ptr null, align 8
@arp_cap_handle = internal global ptr null, align 8

; Function Attrs: null_pointer_is_valid sspstrong uwtable
define hidden void @proto_register_arp() #0 {
  %1 = alloca ptr, align 8
  %2 = alloca ptr, align 8
  call void @llvm.lifetime.start.p0(i64 8, ptr %1) #11
  call void @llvm.lifetime.start.p0(i64 8, ptr %2) #11
  %3 = call i32 @proto_register_protocol(ptr noundef @.str.190, ptr noundef @.str.191, ptr noundef @.str.192)
  store i32 %3, ptr @proto_arp, align 4
  %4 = call i32 @proto_register_protocol(ptr noundef @.str.193, ptr noundef @.str.194, ptr noundef @.str.195)
  store i32 %4, ptr @proto_atmarp, align 4
  %5 = load i32, ptr @proto_arp, align 4
  call void @proto_register_field_array(i32 noundef %5, ptr noundef @proto_register_arp.hf, i32 noundef 48)
  call void @proto_register_subtree_array(ptr noundef @proto_register_arp.ett, i32 noundef 4)
  %6 = load i32, ptr @proto_arp, align 4
  %7 = call ptr @expert_register_protocol(i32 noundef %6)
  store ptr %7, ptr %2, align 8
  %8 = load ptr, ptr %2, align 8
  call void @expert_register_field_array(ptr noundef %8, ptr noundef @proto_register_arp.ei, i32 noundef 3)
  %9 = load i32, ptr @proto_arp, align 4
  %10 = call ptr @register_dissector(ptr noundef @.str.192, ptr noundef @dissect_arp, i32 noundef %9)
  store ptr %10, ptr @arp_handle, align 8
  %11 = load i32, ptr @proto_atmarp, align 4
  %12 = call ptr @register_dissector(ptr noundef @.str.196, ptr noundef @dissect_atmarp, i32 noundef %11)
  %13 = load i32, ptr @proto_arp, align 4
  %14 = call ptr @register_dissector(ptr noundef @.str.197, ptr noundef @dissect_ax25arp, i32 noundef %13)
  %15 = load i32, ptr @proto_arp, align 4
  %16 = call ptr @register_dissector_table(ptr noundef @.str.90, ptr noundef @.str.198, i32 noundef %15, i32 noundef 5, i32 noundef 1)
  store ptr %16, ptr @arp_hw_table, align 8
  %17 = load i32, ptr @proto_arp, align 4
  %18 = call ptr @prefs_register_protocol(i32 noundef %17, ptr noundef null)
  store ptr %18, ptr %1, align 8
  %19 = load ptr, ptr %1, align 8
  call void @prefs_register_bool_preference(ptr noundef %19, ptr noundef @.str.199, ptr noundef @.str.200, ptr noundef @.str.201, ptr noundef @global_arp_detect_request_storm)
  %20 = load ptr, ptr %1, align 8
  call void @prefs_register_uint_preference(ptr noundef %20, ptr noundef @.str.202, ptr noundef @.str.203, ptr noundef @.str.204, i32 noundef 10, ptr noundef @global_arp_detect_request_storm_packets)
  %21 = load ptr, ptr %1, align 8
  call void @prefs_register_uint_preference(ptr noundef %21, ptr noundef @.str.205, ptr noundef @.str.206, ptr noundef @.str.207, i32 noundef 10, ptr noundef @global_arp_detect_request_storm_period)
  %22 = load ptr, ptr %1, align 8
  call void @prefs_register_bool_preference(ptr noundef %22, ptr noundef @.str.208, ptr noundef @.str.209, ptr noundef @.str.210, ptr noundef @global_arp_detect_duplicate_ip_addresses)
  %23 = load ptr, ptr %1, align 8
  call void @prefs_register_bool_preference(ptr noundef %23, ptr noundef @.str.211, ptr noundef @.str.212, ptr noundef @.str.213, ptr noundef @global_arp_register_network_address_binding)
  %24 = call ptr @wmem_epan_scope()
  %25 = call ptr @wmem_file_scope()
  %26 = call noalias ptr @wmem_map_new_autoreset(ptr noundef %24, ptr noundef %25, ptr noundef @address_hash_func, ptr noundef @address_equal_func)
  store ptr %26, ptr @address_hash_table, align 8
  %27 = call ptr @wmem_epan_scope()
  %28 = call ptr @wmem_file_scope()
  %29 = call noalias ptr @wmem_map_new_autoreset(ptr noundef %27, ptr noundef %28, ptr noundef @duplicate_result_hash_func, ptr noundef @duplicate_result_equal_func)
  store ptr %29, ptr @duplicate_result_hash_table, align 8
  %30 = load i32, ptr @proto_arp, align 4
  %31 = call ptr @register_capture_dissector(ptr noundef @.str.192, ptr noundef @capture_arp, i32 noundef %30)
  store ptr %31, ptr @arp_cap_handle, align 8
  call void @llvm.lifetime.end.p0(i64 8, ptr %2) #11
  call void @llvm.lifetime.end.p0(i64 8, ptr %1) #11
  ret void
}