; Function Attrs: null_pointer_is_valid sspstrong uwtable
define hidden void @proto_register_arp() local_unnamed_addr #0 {
  %1 = tail call i32 @proto_register_protocol(ptr noundef nonnull @.str.190, ptr noundef nonnull @.str.191, ptr noundef nonnull @.str.192)
  store i32 %1, ptr @proto_arp, align 4
  %2 = tail call i32 @proto_register_protocol(ptr noundef nonnull @.str.193, ptr noundef nonnull @.str.194, ptr noundef nonnull @.str.195)
  store i32 %2, ptr @proto_atmarp, align 4
  %3 = load i32, ptr @proto_arp, align 4
  tail call void @proto_register_field_array(i32 noundef %3, ptr noundef nonnull @proto_register_arp.hf, i32 noundef 48)
  tail call void @proto_register_subtree_array(ptr noundef nonnull @proto_register_arp.ett, i32 noundef 4)
  %4 = load i32, ptr @proto_arp, align 4
  %5 = tail call ptr @expert_register_protocol(i32 noundef %4)
  tail call void @expert_register_field_array(ptr noundef %5, ptr noundef nonnull @proto_register_arp.ei, i32 noundef 3)
  %6 = load i32, ptr @proto_arp, align 4
  %7 = tail call ptr @register_dissector(ptr noundef nonnull @.str.192, ptr noundef nonnull @dissect_arp, i32 noundef %6)
  store ptr %7, ptr @arp_handle, align 8
  %8 = load i32, ptr @proto_atmarp, align 4
  %9 = tail call ptr @register_dissector(ptr noundef nonnull @.str.196, ptr noundef nonnull @dissect_atmarp, i32 noundef %8)
  %10 = load i32, ptr @proto_arp, align 4
  %11 = tail call ptr @register_dissector(ptr noundef nonnull @.str.197, ptr noundef nonnull @dissect_ax25arp, i32 noundef %10)
  %12 = load i32, ptr @proto_arp, align 4
  %13 = tail call ptr @register_dissector_table(ptr noundef nonnull @.str.90, ptr noundef nonnull @.str.198, i32 noundef %12, i32 noundef 5, i32 noundef 1)
  store ptr %13, ptr @arp_hw_table, align 8
  %14 = load i32, ptr @proto_arp, align 4
  %15 = tail call ptr @prefs_register_protocol(i32 noundef %14, ptr noundef null)
  tail call void @prefs_register_bool_preference(ptr noundef %15, ptr noundef nonnull @.str.199, ptr noundef nonnull @.str.200, ptr noundef nonnull @.str.201, ptr noundef nonnull @global_arp_detect_request_storm)
  tail call void @prefs_register_uint_preference(ptr noundef %15, ptr noundef nonnull @.str.202, ptr noundef nonnull @.str.203, ptr noundef nonnull @.str.204, i32 noundef 10, ptr noundef nonnull @global_arp_detect_request_storm_packets)
  tail call void @prefs_register_uint_preference(ptr noundef %15, ptr noundef nonnull @.str.205, ptr noundef nonnull @.str.206, ptr noundef nonnull @.str.207, i32 noundef 10, ptr noundef nonnull @global_arp_detect_request_storm_period)
  tail call void @prefs_register_bool_preference(ptr noundef %15, ptr noundef nonnull @.str.208, ptr noundef nonnull @.str.209, ptr noundef nonnull @.str.210, ptr noundef nonnull @global_arp_detect_duplicate_ip_addresses)
  tail call void @prefs_register_bool_preference(ptr noundef %15, ptr noundef nonnull @.str.211, ptr noundef nonnull @.str.212, ptr noundef nonnull @.str.213, ptr noundef nonnull @global_arp_register_network_address_binding)
  %16 = tail call ptr @wmem_epan_scope()
  %17 = tail call ptr @wmem_file_scope()
  %18 = tail call noalias ptr @wmem_map_new_autoreset(ptr noundef %16, ptr noundef %17, ptr noundef nonnull @address_hash_func, ptr noundef nonnull @address_equal_func)
  store ptr %18, ptr @address_hash_table, align 8
  %19 = tail call ptr @wmem_epan_scope()
  %20 = tail call ptr @wmem_file_scope()
  %21 = tail call noalias ptr @wmem_map_new_autoreset(ptr noundef %19, ptr noundef %20, ptr noundef nonnull @duplicate_result_hash_func, ptr noundef nonnull @duplicate_result_equal_func)
  store ptr %21, ptr @duplicate_result_hash_table, align 8
  %22 = load i32, ptr @proto_arp, align 4
  %23 = tail call ptr @register_capture_dissector(ptr noundef nonnull @.str.192, ptr noundef nonnull @capture_arp, i32 noundef %22)
  store ptr %23, ptr @arp_cap_handle, align 8
  ret void
}